(dp0
S'messages'
p1
(lp2
(dp3
S'from'
p4
S'webmaster@localhost'
p5
sS'read'
p6
I01
sS'to'
p7
(lp8
S'test@test.com'
p9
asS'time'
p10
F1355509602.469908
sS'data'
p11
S'Content-Type: text/plain; charset="utf-8"\nMIME-Version: 1.0\nContent-Transfer-Encoding: 7bit\nSubject: Account activation on example.com\nFrom: webmaster@localhost\nTo: test@test.com\nDate: Fri, 14 Dec 2012 18:26:42 -0000\nMessage-ID: <20121214182642.32540.21089@pogobook.local>\n\n\nActivate account at example.com:\n\nhttp://example.com/accounts/registration/activate/d6b9eac079d11ce638231e3164f4d6e1297a9bc3/\n\nLink is valid for 7 days.'
p12
sS'id'
p13
I7
sa(dp14
S'from'
p15
S'from@test.com'
p16
sS'read'
p17
I01
sS'to'
p18
(lp19
S'to@test.com'
p20
asS'time'
p21
F1355507765.285587
sS'data'
p22
S'hello world'
p23
sS'id'
p24
I6
sa(dp25
S'from'
p26
S'from@test.com'
p27
sS'read'
p28
I01
sS'to'
p29
(lp30
S'to@test.com'
p31
asS'time'
p32
F1355507588.595301
sS'data'
p33
S'hello world'
p34
sS'id'
p35
I5
sa(dp36
S'from'
p37
S'from@test.com'
p38
sS'read'
p39
I01
sS'to'
p40
(lp41
S'to@test.com'
p42
asS'time'
p43
F1355503791.029883
sS'data'
p44
S'hello world'
p45
sS'id'
p46
I4
sa(dp47
g37
S'from@test.com'
p48
sS'read'
p49
I01
sg40
(lp50
S'to@test.com'
p51
asg43
F1355503785.83783
sg44
S'hello world'
p52
sg46
I3
sa(dp53
g37
S'from@test.com'
p54
sS'read'
p55
I01
sg40
(lp56
S'to@test.com'
p57
asg43
F1355503764.008957
sg44
S'hello world'
p58
sg46
I2
sa(dp59
g37
S'from@test.com'
p60
sg55
I01
sg40
(lp61
S'to@test.com'
p62
asg43
F1355503749.818639
sg44
S'hello world'
p63
sg46
I1
sa(dp64
g4
S'from@test.com'
p65
sS'read'
p66
I01
sg7
(lp67
S'to@test.com'
p68
asg10
F1355509907.560452
sg11
S'hello world'
p69
sg13
I8
sa(dp70
S'to'
p71
(lp72
S'to@froogle.com'
p73
asS'time'
p74
F1355511022.794441
sS'from'
p75
S'me@drooogle.com'
p76
sS'id'
p77
I9
sS'data'
p78
S'Subject: Open email\n\nHello world.Whats happening'
p79
sas.